; Function Attrs: mustprogress uwtable
define internal fastcc void @_ZL9RandomizeRN4ncnn3MatEff(ptr noundef nonnull readonly align 8 captures(none) dereferenceable(72) %0, float noundef %1, float noundef %2) unnamed_addr #3 {
  %4 = getelementptr inbounds nuw i8, ptr %0, i64 16
  %5 = load i64, ptr %4, align 8, !tbaa !90
  switch i64 %5, label %.loopexit [
    i64 4, label %.preheader
    i64 2, label %52
    i64 1, label %102
  ]

.preheader:                                       ; preds = %3
  %6 = getelementptr inbounds nuw i8, ptr %0, i64 64
  %7 = getelementptr inbounds nuw i8, ptr %0, i64 56
  %8 = load i32, ptr %7, align 8, !tbaa !85
  %9 = sext i32 %8 to i64
  %10 = load i64, ptr %6, align 8, !tbaa !72
  %11 = mul i64 %10, %9
  %.not66 = icmp eq i64 %11, 0
  br i1 %.not66, label %.loopexit, label %.lr.ph64

.lr.ph64:                                         ; preds = %.preheader
  %.promoted59 = load i64, ptr getelementptr inbounds nuw (i8, ptr @_ZL17g_prng_rand_state, i64 512), align 8
  %.promoted = load i64, ptr getelementptr inbounds nuw (i8, ptr @_ZL17g_prng_rand_state, i64 520), align 8
  %12 = fsub float %2, %1
  %13 = load ptr, ptr %0, align 8, !tbaa !76
  %14 = freeze i64 %.promoted
  %15 = load i64, ptr %6, align 8, !tbaa !72
  %16 = mul i64 %15, %9
  br label %17

17:                                               ; preds = %.lr.ph64, %_ZL11RandomFloatff.exit
  %.02363 = phi i64 [ 0, %.lr.ph64 ], [ %50, %_ZL11RandomFloatff.exit ]
  %storemerge.i.i5862 = phi i64 [ %14, %.lr.ph64 ], [ %storemerge.i.i, %_ZL11RandomFloatff.exit ]
  %.us-phi7.i6061 = phi i64 [ %.promoted59, %.lr.ph64 ], [ %.us-phi7.i, %_ZL11RandomFloatff.exit ]
  %.not.i.i = icmp eq i64 %storemerge.i.i5862, 0
  %18 = add i64 %storemerge.i.i5862, -1
  %storemerge.i.i = select i1 %.not.i.i, i64 54, i64 %18
  br i1 %.not.i.i, label %.split.i, label %.split.us.i

.split.us.i:                                      ; preds = %17
  %19 = add i64 %.us-phi7.i6061, 40
  %20 = and i64 %19, 63
  %21 = getelementptr inbounds nuw [64 x i64], ptr @_ZL17g_prng_rand_state, i64 0, i64 %20
  %22 = load i64, ptr %21, align 8, !tbaa !32
  %23 = add i64 %.us-phi7.i6061, 9
  %24 = and i64 %23, 63
  %25 = getelementptr inbounds nuw [64 x i64], ptr @_ZL17g_prng_rand_state, i64 0, i64 %24
  %26 = load i64, ptr %25, align 8, !tbaa !32
  %27 = add i64 %26, %22
  %28 = and i64 %.us-phi7.i6061, 63
  %29 = getelementptr inbounds nuw [64 x i64], ptr @_ZL17g_prng_rand_state, i64 0, i64 %28
  store i64 %27, ptr %29, align 8, !tbaa !32
  %30 = add i64 %.us-phi7.i6061, 1
  br label %_ZL11RandomFloatff.exit

.split.i:                                         ; preds = %17, %.split.i
  %.0161.i.i = phi i64 [ %44, %.split.i ], [ 0, %17 ]
  %31 = phi i64 [ %43, %.split.i ], [ %.us-phi7.i6061, %17 ]
  %32 = add i64 %31, 40
  %33 = and i64 %32, 63
  %34 = getelementptr inbounds nuw [64 x i64], ptr @_ZL17g_prng_rand_state, i64 0, i64 %33
  %35 = load i64, ptr %34, align 8, !tbaa !32
  %36 = add i64 %31, 9
  %37 = and i64 %36, 63
  %38 = getelementptr inbounds nuw [64 x i64], ptr @_ZL17g_prng_rand_state, i64 0, i64 %37
  %39 = load i64, ptr %38, align 8, !tbaa !32
  %40 = add i64 %39, %35
  %41 = and i64 %31, 63
  %42 = getelementptr inbounds nuw [64 x i64], ptr @_ZL17g_prng_rand_state, i64 0, i64 %41
  store i64 %40, ptr %42, align 8, !tbaa !32
  %43 = add i64 %31, 1
  %44 = add nuw nsw i64 %.0161.i.i, 1
  %exitcond.not.i = icmp eq i64 %44, 496
  br i1 %exitcond.not.i, label %_ZL11RandomFloatff.exit, label %.split.i, !llvm.loop !35

_ZL11RandomFloatff.exit:                          ; preds = %.split.i, %.split.us.i
  %.us-phi.i = phi i64 [ %27, %.split.us.i ], [ %40, %.split.i ]
  %.us-phi7.i = phi i64 [ %30, %.split.us.i ], [ %43, %.split.i ]
  %45 = uitofp i64 %.us-phi.i to float
  %46 = fmul float %45, 0x3BF0000000000000
  %47 = fmul float %12, %46
  %48 = fadd float %1, %47
  %49 = getelementptr inbounds nuw float, ptr %13, i64 %.02363
  store float %48, ptr %49, align 4, !tbaa !86
  %50 = add nuw i64 %.02363, 1
  %51 = icmp ult i64 %50, %16
  br i1 %51, label %17, label %..loopexit_crit_edge, !llvm.loop !144

52:                                               ; preds = %3
  %53 = load ptr, ptr %0, align 8, !tbaa !76
  %54 = getelementptr inbounds nuw i8, ptr %0, i64 64
  %55 = getelementptr inbounds nuw i8, ptr %0, i64 56
  %56 = load i64, ptr %54, align 8, !tbaa !72
  %57 = load i32, ptr %55, align 8, !tbaa !85
  %58 = sext i32 %57 to i64
  %59 = mul i64 %56, %58
  %.not65 = icmp eq i64 %59, 0
  br i1 %.not65, label %.loopexit, label %.lr.ph57

.lr.ph57:                                         ; preds = %52
  %60 = fsub float %2, %1
  br label %61

61:                                               ; preds = %.lr.ph57, %_ZL11RandomFloatff.exit36
  %.02456 = phi i64 [ 0, %.lr.ph57 ], [ %96, %_ZL11RandomFloatff.exit36 ]
  %62 = load i64, ptr getelementptr inbounds nuw (i8, ptr @_ZL17g_prng_rand_state, i64 520), align 8, !tbaa !28
  %.fr.i26 = freeze i64 %62
  %.not.i.i27 = icmp eq i64 %.fr.i26, 0
  %63 = add i64 %.fr.i26, -1
  %storemerge.i.i28 = select i1 %.not.i.i27, i64 54, i64 %63
  store i64 %storemerge.i.i28, ptr getelementptr inbounds nuw (i8, ptr @_ZL17g_prng_rand_state, i64 520), align 8, !tbaa !28
  %.promoted.i.i29 = load i64, ptr getelementptr inbounds nuw (i8, ptr @_ZL17g_prng_rand_state, i64 512), align 8, !tbaa !31
  br i1 %.not.i.i27, label %.split.i33, label %.split.us.i30

.split.us.i30:                                    ; preds = %61
  %64 = add i64 %.promoted.i.i29, 40
  %65 = and i64 %64, 63
  %66 = getelementptr inbounds nuw [64 x i64], ptr @_ZL17g_prng_rand_state, i64 0, i64 %65
  %67 = load i64, ptr %66, align 8, !tbaa !32
  %68 = add i64 %.promoted.i.i29, 9
  %69 = and i64 %68, 63
  %70 = getelementptr inbounds nuw [64 x i64], ptr @_ZL17g_prng_rand_state, i64 0, i64 %69
  %71 = load i64, ptr %70, align 8, !tbaa !32
  %72 = add i64 %71, %67
  %73 = and i64 %.promoted.i.i29, 63
  %74 = getelementptr inbounds nuw [64 x i64], ptr @_ZL17g_prng_rand_state, i64 0, i64 %73
  store i64 %72, ptr %74, align 8, !tbaa !32
  %75 = add i64 %.promoted.i.i29, 1
  br label %_ZL11RandomFloatff.exit36

.split.i33:                                       ; preds = %61, %.split.i33
  %.0161.i.i34 = phi i64 [ %89, %.split.i33 ], [ 0, %61 ]
  %76 = phi i64 [ %88, %.split.i33 ], [ %.promoted.i.i29, %61 ]
  %77 = add i64 %76, 40
  %78 = and i64 %77, 63
  %79 = getelementptr inbounds nuw [64 x i64], ptr @_ZL17g_prng_rand_state, i64 0, i64 %78
  %80 = load i64, ptr %79, align 8, !tbaa !32
  %81 = add i64 %76, 9
  %82 = and i64 %81, 63
  %83 = getelementptr inbounds nuw [64 x i64], ptr @_ZL17g_prng_rand_state, i64 0, i64 %82
  %84 = load i64, ptr %83, align 8, !tbaa !32
  %85 = add i64 %84, %80
  %86 = and i64 %76, 63
  %87 = getelementptr inbounds nuw [64 x i64], ptr @_ZL17g_prng_rand_state, i64 0, i64 %86
  store i64 %85, ptr %87, align 8, !tbaa !32
  %88 = add i64 %76, 1
  %89 = add nuw nsw i64 %.0161.i.i34, 1
  %exitcond.not.i35 = icmp eq i64 %89, 496
  br i1 %exitcond.not.i35, label %_ZL11RandomFloatff.exit36, label %.split.i33, !llvm.loop !35

_ZL11RandomFloatff.exit36:                        ; preds = %.split.i33, %.split.us.i30
  %.us-phi.i31 = phi i64 [ %72, %.split.us.i30 ], [ %85, %.split.i33 ]
  %.us-phi7.i32 = phi i64 [ %75, %.split.us.i30 ], [ %88, %.split.i33 ]
  store i64 %.us-phi7.i32, ptr getelementptr inbounds nuw (i8, ptr @_ZL17g_prng_rand_state, i64 512), align 8, !tbaa !31
  %90 = uitofp i64 %.us-phi.i31 to float
  %91 = fmul float %90, 0x3BF0000000000000
  %92 = fmul float %60, %91
  %93 = fadd float %1, %92
  %94 = tail call noundef zeroext i16 @_ZN4ncnn18float32_to_float16Ef(float noundef %93)
  %95 = getelementptr inbounds nuw i16, ptr %53, i64 %.02456
  store i16 %94, ptr %95, align 2, !tbaa !145
  %96 = add nuw i64 %.02456, 1
  %97 = load i64, ptr %54, align 8, !tbaa !72
  %98 = load i32, ptr %55, align 8, !tbaa !85
  %99 = sext i32 %98 to i64
  %100 = mul i64 %97, %99
  %101 = icmp ult i64 %96, %100
  br i1 %101, label %61, label %.loopexit, !llvm.loop !147

102:                                              ; preds = %3
  %103 = load ptr, ptr %0, align 8, !tbaa !76
  %104 = getelementptr inbounds nuw i8, ptr %0, i64 64
  %105 = getelementptr inbounds nuw i8, ptr %0, i64 56
  %106 = load i64, ptr %104, align 8, !tbaa !72
  %107 = load i32, ptr %105, align 8, !tbaa !85
  %108 = sext i32 %107 to i64
  %109 = mul i64 %106, %108
  %.not = icmp eq i64 %109, 0
  br i1 %.not, label %.loopexit, label %.lr.ph.preheader

.lr.ph.preheader:                                 ; preds = %102
  %.promoted96 = load i64, ptr getelementptr inbounds nuw (i8, ptr @_ZL17g_prng_rand_state, i64 520), align 8, !tbaa !28
  %.promoted98 = load i64, ptr getelementptr inbounds nuw (i8, ptr @_ZL17g_prng_rand_state, i64 512), align 8, !tbaa !31
  br label %.lr.ph

.lr.ph:                                           ; preds = %.lr.ph.preheader, %_ZL11RandomFloatff.exit47
  %.us-phi7.i4399 = phi i64 [ %.us-phi7.i43, %_ZL11RandomFloatff.exit47 ], [ %.promoted98, %.lr.ph.preheader ]
  %storemerge.i.i3997 = phi i64 [ %storemerge.i.i39, %_ZL11RandomFloatff.exit47 ], [ %.promoted96, %.lr.ph.preheader ]
  %.055 = phi i64 [ %143, %_ZL11RandomFloatff.exit47 ], [ 0, %.lr.ph.preheader ]
  %.fr.i37 = freeze i64 %storemerge.i.i3997
  %.not.i.i38 = icmp eq i64 %.fr.i37, 0
  %110 = add i64 %.fr.i37, -1
  %storemerge.i.i39 = select i1 %.not.i.i38, i64 54, i64 %110
  br i1 %.not.i.i38, label %.split.i44, label %.split.us.i41

.split.us.i41:                                    ; preds = %.lr.ph
  %111 = add i64 %.us-phi7.i4399, 40
  %112 = and i64 %111, 63
  %113 = getelementptr inbounds nuw [64 x i64], ptr @_ZL17g_prng_rand_state, i64 0, i64 %112
  %114 = load i64, ptr %113, align 8, !tbaa !32
  %115 = add i64 %.us-phi7.i4399, 9
  %116 = and i64 %115, 63
  %117 = getelementptr inbounds nuw [64 x i64], ptr @_ZL17g_prng_rand_state, i64 0, i64 %116
  %118 = load i64, ptr %117, align 8, !tbaa !32
  %119 = add i64 %118, %114
  %120 = and i64 %.us-phi7.i4399, 63
  %121 = getelementptr inbounds nuw [64 x i64], ptr @_ZL17g_prng_rand_state, i64 0, i64 %120
  store i64 %119, ptr %121, align 8, !tbaa !32
  %122 = add i64 %.us-phi7.i4399, 1
  br label %_ZL11RandomFloatff.exit47

.split.i44:                                       ; preds = %.lr.ph, %.split.i44
  %.0161.i.i45 = phi i64 [ %136, %.split.i44 ], [ 0, %.lr.ph ]
  %123 = phi i64 [ %135, %.split.i44 ], [ %.us-phi7.i4399, %.lr.ph ]
  %124 = add i64 %123, 40
  %125 = and i64 %124, 63
  %126 = getelementptr inbounds nuw [64 x i64], ptr @_ZL17g_prng_rand_state, i64 0, i64 %125
  %127 = load i64, ptr %126, align 8, !tbaa !32
  %128 = add i64 %123, 9
  %129 = and i64 %128, 63
  %130 = getelementptr inbounds nuw [64 x i64], ptr @_ZL17g_prng_rand_state, i64 0, i64 %129
  %131 = load i64, ptr %130, align 8, !tbaa !32
  %132 = add i64 %131, %127
  %133 = and i64 %123, 63
  %134 = getelementptr inbounds nuw [64 x i64], ptr @_ZL17g_prng_rand_state, i64 0, i64 %133
  store i64 %132, ptr %134, align 8, !tbaa !32
  %135 = add i64 %123, 1
  %136 = add nuw nsw i64 %.0161.i.i45, 1
  %exitcond.not.i46 = icmp eq i64 %136, 496
  br i1 %exitcond.not.i46, label %_ZL11RandomFloatff.exit47, label %.split.i44, !llvm.loop !35

_ZL11RandomFloatff.exit47:                        ; preds = %.split.i44, %.split.us.i41
  %.us-phi.i42 = phi i64 [ %119, %.split.us.i41 ], [ %132, %.split.i44 ]
  %.us-phi7.i43 = phi i64 [ %122, %.split.us.i41 ], [ %135, %.split.i44 ]
  %137 = uitofp i64 %.us-phi.i42 to float
  %138 = fmul float %137, 0x3BF0000000000000
  %139 = fmul float %138, 2.540000e+02
  %140 = fadd float %139, -1.270000e+02
  %141 = fptosi float %140 to i8
  %142 = getelementptr inbounds nuw i8, ptr %103, i64 %.055
  store i8 %141, ptr %142, align 1, !tbaa !148
  %143 = add nuw i64 %.055, 1
  %144 = load i64, ptr %104, align 8, !tbaa !72
  %145 = load i32, ptr %105, align 8, !tbaa !85
  %146 = sext i32 %145 to i64
  %147 = mul i64 %144, %146
  %148 = icmp ult i64 %143, %147
  br i1 %148, label %.lr.ph, label %.loopexit.loopexit88, !llvm.loop !149

..loopexit_crit_edge:                             ; preds = %_ZL11RandomFloatff.exit
  store i64 %storemerge.i.i, ptr getelementptr inbounds nuw (i8, ptr @_ZL17g_prng_rand_state, i64 520), align 8, !tbaa !28
  store i64 %.us-phi7.i, ptr getelementptr inbounds nuw (i8, ptr @_ZL17g_prng_rand_state, i64 512), align 8, !tbaa !31
  br label %.loopexit

.loopexit.loopexit88:                             ; preds = %_ZL11RandomFloatff.exit47
  store i64 %storemerge.i.i39, ptr getelementptr inbounds nuw (i8, ptr @_ZL17g_prng_rand_state, i64 520), align 8, !tbaa !28
  store i64 %.us-phi7.i43, ptr getelementptr inbounds nuw (i8, ptr @_ZL17g_prng_rand_state, i64 512), align 8, !tbaa !31
  br label %.loopexit

.loopexit:                                        ; preds = %_ZL11RandomFloatff.exit36, %.loopexit.loopexit88, %102, %52, %.preheader, %..loopexit_crit_edge, %3
  ret void
}